target datalayout = "e-m:e-p270:32:32-p271:32:32-p272:64:64-i64:64-i128:128-f80:128-n8:16:32:64-S128"
target triple = "x86_64-pc-linux-gnu"

%struct._9p_hashkey = type { i32, i16, i32 }
%struct._packet_info = type { ptr, ptr, i32, i32, %struct.nstime_t, %struct.nstime_t, %struct.nstime_t, i8, ptr, ptr, ptr, ptr, %struct._address, %struct._address, %struct._address, %struct._address, %struct._address, %struct._address, i32, ptr, i8, [3 x i8], %struct.anon, i32, i32, i32, i32, ptr, i8, ptr, ptr, i16, i16, i32, i32, i16, i32, i32, ptr, ptr, ptr, i8, i8, i16, i16, i16, i32, i16, i16, ptr, ptr, ptr, ptr, ptr, i32, i32 }
%struct.nstime_t = type { i64, i32 }
%struct._address = type { i32, i32, ptr, ptr }
%struct.anon = type { i8, [3 x i8] }
%struct._9p_hashval = type { i64, ptr }
%struct.conversation = type { ptr, ptr, ptr, i32, i32, i32, ptr, ptr, i32, ptr }

@_9p_hashtable = internal global ptr null, align 8
@.str.543 = private unnamed_addr constant [14 x i8] c"<invalid fid>\00", align 1

; Function Attrs: null_pointer_is_valid sspstrong uwtable
define internal ptr @_9p_hash_get(ptr noundef %0, i16 noundef zeroext %1, i32 noundef %2) #0 {
  %4 = alloca ptr, align 8
  %5 = alloca i16, align 2
  %6 = alloca i32, align 4
  %7 = alloca %struct._9p_hashkey, align 4
  %8 = alloca ptr, align 8
  store ptr %0, ptr %4, align 8
  store i16 %1, ptr %5, align 2
  store i32 %2, ptr %6, align 4
  call void @llvm.lifetime.start.p0(i64 12, ptr %7) #7
  call void @llvm.lifetime.start.p0(i64 8, ptr %8) #7
  %9 = load ptr, ptr %4, align 8
  %10 = call ptr @find_or_create_conversation(ptr noundef %9)
  store ptr %10, ptr %8, align 8
  %11 = load ptr, ptr %8, align 8
  %12 = getelementptr inbounds nuw %struct.conversation, ptr %11, i32 0, i32 3
  %13 = load i32, ptr %12, align 8
  %14 = getelementptr inbounds nuw %struct._9p_hashkey, ptr %7, i32 0, i32 0
  store i32 %13, ptr %14, align 4
  %15 = load i16, ptr %5, align 2
  %16 = getelementptr inbounds nuw %struct._9p_hashkey, ptr %7, i32 0, i32 1
  store i16 %15, ptr %16, align 4
  %17 = load i32, ptr %6, align 4
  %18 = getelementptr inbounds nuw %struct._9p_hashkey, ptr %7, i32 0, i32 2
  store i32 %17, ptr %18, align 4
  %19 = load ptr, ptr @_9p_hashtable, align 8
  %20 = call ptr @wmem_map_lookup(ptr noundef %19, ptr noundef %7)
  call void @llvm.lifetime.end.p0(i64 8, ptr %8) #7
  call void @llvm.lifetime.end.p0(i64 12, ptr %7) #7
  ret ptr %20
}

; Function Attrs: null_pointer_is_valid sspstrong uwtable
define internal ptr @conv_get_fid(ptr noundef %0, i32 noundef %1) #0 {
  %3 = alloca ptr, align 8
  %4 = alloca ptr, align 8
  %5 = alloca i32, align 4
  %6 = alloca ptr, align 8
  %7 = alloca i32, align 4
  store ptr %0, ptr %4, align 8
  store i32 %1, ptr %5, align 4
  call void @llvm.lifetime.start.p0(i64 8, ptr %6) #7
  %8 = load i32, ptr %5, align 4
  %9 = icmp eq i32 %8, -1
  br i1 %9, label %10, label %11

10:                                               ; preds = %2
  store ptr @.str.543, ptr %3, align 8
  store i32 1, ptr %7, align 4
  br label %27

11:                                               ; preds = %2
  %12 = load ptr, ptr %4, align 8
  %13 = load i32, ptr %5, align 4
  %14 = call ptr @_9p_hash_get(ptr noundef %12, i16 noundef zeroext -1, i32 noundef %13)
  store ptr %14, ptr %6, align 8
  %15 = load ptr, ptr %6, align 8
  %16 = icmp ne ptr %15, null
  br i1 %16, label %18, label %17

17:                                               ; preds = %11
  store ptr @.str.543, ptr %3, align 8
  store i32 1, ptr %7, align 4
  br label %27

18:                                               ; preds = %11
  %19 = load ptr, ptr %6, align 8
  %20 = getelementptr inbounds nuw %struct._9p_hashval, ptr %19, i32 0, i32 1
  %21 = load ptr, ptr %20, align 8
  %22 = load ptr, ptr %4, align 8
  %23 = getelementptr inbounds nuw %struct._packet_info, ptr %22, i32 0, i32 3
  %24 = load i32, ptr %23, align 4
  %25 = sub i32 %24, 1
  %26 = call ptr @wmem_tree_lookup32_le(ptr noundef %21, i32 noundef %25)
  store ptr %26, ptr %3, align 8
  store i32 1, ptr %7, align 4
  br label %27

27:                                               ; preds = %18, %17, %10
  call void @llvm.lifetime.end.p0(i64 8, ptr %6) #7
  %28 = load ptr, ptr %3, align 8
  ret ptr %28
}