; Function Attrs: null_pointer_is_valid sspstrong uwtable
define internal fastcc ptr @conv_get_fid(ptr noundef %0, i32 noundef %1) unnamed_addr #0 {
  %3 = alloca %struct._9p_hashkey, align 4
  %4 = icmp eq i32 %1, -1
  br i1 %4, label %20, label %5

5:                                                ; preds = %2
  call void @llvm.lifetime.start.p0(i64 12, ptr nonnull %3) #8
  %6 = tail call ptr @find_or_create_conversation(ptr noundef %0)
  %7 = getelementptr inbounds nuw i8, ptr %6, i64 24
  %8 = load i32, ptr %7, align 8
  store i32 %8, ptr %3, align 4
  %9 = getelementptr inbounds nuw i8, ptr %3, i64 4
  store i16 -1, ptr %9, align 4
  %10 = getelementptr inbounds nuw i8, ptr %3, i64 8
  store i32 %1, ptr %10, align 4
  %11 = load ptr, ptr @_9p_hashtable, align 8
  %12 = call ptr @wmem_map_lookup(ptr noundef %11, ptr noundef nonnull %3)
  call void @llvm.lifetime.end.p0(i64 12, ptr nonnull %3) #8
  %.not = icmp eq ptr %12, null
  br i1 %.not, label %20, label %13

13:                                               ; preds = %5
  %14 = getelementptr inbounds nuw i8, ptr %12, i64 8
  %15 = load ptr, ptr %14, align 8
  %16 = getelementptr inbounds nuw i8, ptr %0, i64 20
  %17 = load i32, ptr %16, align 4
  %18 = add i32 %17, -1
  %19 = call ptr @wmem_tree_lookup32_le(ptr noundef %15, i32 noundef %18)
  br label %20

20:                                               ; preds = %5, %2, %13
  %.0 = phi ptr [ %19, %13 ], [ @.str.543, %2 ], [ @.str.543, %5 ]
  ret ptr %.0
}